	.file	"datos.c"
	.text
.Ltext0:
	.section	.rodata.str1.8,"aMS",@progbits,1
	.align 8
.LC0:
	.string	"Seleccione una figura para calcular:"
	.section	.rodata.str1.1,"aMS",@progbits,1
.LC1:
	.string	"1. Tri\303\241ngulo"
.LC2:
	.string	"2. Paralelogramo"
.LC3:
	.string	"3. Cuadrado"
.LC4:
	.string	"4. Rect\303\241ngulo"
.LC5:
	.string	"5. Rombo"
.LC6:
	.string	"6. Trapecio"
.LC7:
	.string	"7. C\303\255rculo"
.LC8:
	.string	"8. Pol\303\255gono Regular"
.LC9:
	.string	"9. Cubo"
.LC10:
	.string	"10. Cuboide"
.LC11:
	.string	"11. Cilindro Recto"
.LC12:
	.string	"12. Esfera"
.LC13:
	.string	"13. Cono Circular Recto"
.LC14:
	.string	"0. Salir"
	.text
	.p2align 4
	.globl	mostrar_menu
	.type	mostrar_menu, @function
mostrar_menu:
.LFB23:
	.file 1 "datos.c"
	.loc 1 5 1 view -0
	.cfi_startproc
	endbr64
	.loc 1 6 5 view .LVU1
.LVL0:
.LBB184:
.LBI184:
	.file 2 "/usr/include/x86_64-linux-gnu/bits/stdio2.h"
	.loc 2 105 1 view .LVU2
.LBB185:
	.loc 2 107 3 view .LVU3
.LBE185:
.LBE184:
	.loc 1 5 1 is_stmt 0 view .LVU4
	subq	$8, %rsp
	.cfi_def_cfa_offset 16
.LBB187:
.LBB186:
	.loc 2 107 10 view .LVU5
	leaq	.LC0(%rip), %rdi
	call	puts@PLT
.LVL1:
	.loc 2 107 10 view .LVU6
.LBE186:
.LBE187:
	.loc 1 7 5 is_stmt 1 view .LVU7
.LBB188:
.LBI188:
	.loc 2 105 1 view .LVU8
.LBB189:
	.loc 2 107 3 view .LVU9
	.loc 2 107 10 is_stmt 0 view .LVU10
	leaq	.LC1(%rip), %rdi
	call	puts@PLT
.LVL2:
	.loc 2 107 10 view .LVU11
.LBE189:
.LBE188:
	.loc 1 8 5 is_stmt 1 view .LVU12
.LBB190:
.LBI190:
	.loc 2 105 1 view .LVU13
.LBB191:
	.loc 2 107 3 view .LVU14
	.loc 2 107 10 is_stmt 0 view .LVU15
	leaq	.LC2(%rip), %rdi
	call	puts@PLT
.LVL3:
	.loc 2 107 10 view .LVU16
.LBE191:
.LBE190:
	.loc 1 9 5 is_stmt 1 view .LVU17
.LBB192:
.LBI192:
	.loc 2 105 1 view .LVU18
.LBB193:
	.loc 2 107 3 view .LVU19
	.loc 2 107 10 is_stmt 0 view .LVU20
	leaq	.LC3(%rip), %rdi
	call	puts@PLT
.LVL4:
	.loc 2 107 10 view .LVU21
.LBE193:
.LBE192:
	.loc 1 10 5 is_stmt 1 view .LVU22
.LBB194:
.LBI194:
	.loc 2 105 1 view .LVU23
.LBB195:
	.loc 2 107 3 view .LVU24
	.loc 2 107 10 is_stmt 0 view .LVU25
	leaq	.LC4(%rip), %rdi
	call	puts@PLT
.LVL5:
	.loc 2 107 10 view .LVU26
.LBE195:
.LBE194:
	.loc 1 11 5 is_stmt 1 view .LVU27
.LBB196:
.LBI196:
	.loc 2 105 1 view .LVU28
.LBB197:
	.loc 2 107 3 view .LVU29
	.loc 2 107 10 is_stmt 0 view .LVU30
	leaq	.LC5(%rip), %rdi
	call	puts@PLT
.LVL6:
	.loc 2 107 10 view .LVU31
.LBE197:
.LBE196:
	.loc 1 12 5 is_stmt 1 view .LVU32
.LBB198:
.LBI198:
	.loc 2 105 1 view .LVU33
.LBB199:
	.loc 2 107 3 view .LVU34
	.loc 2 107 10 is_stmt 0 view .LVU35
	leaq	.LC6(%rip), %rdi
	call	puts@PLT
.LVL7:
	.loc 2 107 10 view .LVU36
.LBE199:
.LBE198:
	.loc 1 13 5 is_stmt 1 view .LVU37
.LBB200:
.LBI200:
	.loc 2 105 1 view .LVU38
.LBB201:
	.loc 2 107 3 view .LVU39
	.loc 2 107 10 is_stmt 0 view .LVU40
	leaq	.LC7(%rip), %rdi
	call	puts@PLT
.LVL8:
	.loc 2 107 10 view .LVU41
.LBE201:
.LBE200:
	.loc 1 14 5 is_stmt 1 view .LVU42
.LBB202:
.LBI202:
	.loc 2 105 1 view .LVU43
.LBB203:
	.loc 2 107 3 view .LVU44
	.loc 2 107 10 is_stmt 0 view .LVU45
	leaq	.LC8(%rip), %rdi
	call	puts@PLT
.LVL9:
	.loc 2 107 10 view .LVU46
.LBE203:
.LBE202:
	.loc 1 15 5 is_stmt 1 view .LVU47
.LBB204:
.LBI204:
	.loc 2 105 1 view .LVU48
.LBB205:
	.loc 2 107 3 view .LVU49
	.loc 2 107 10 is_stmt 0 view .LVU50
	leaq	.LC9(%rip), %rdi
	call	puts@PLT
.LVL10:
	.loc 2 107 10 view .LVU51
.LBE205:
.LBE204:
	.loc 1 16 5 is_stmt 1 view .LVU52
.LBB206:
.LBI206:
	.loc 2 105 1 view .LVU53
.LBB207:
	.loc 2 107 3 view .LVU54
	.loc 2 107 10 is_stmt 0 view .LVU55
	leaq	.LC10(%rip), %rdi
	call	puts@PLT
.LVL11:
	.loc 2 107 10 view .LVU56
.LBE207:
.LBE206:
	.loc 1 17 5 is_stmt 1 view .LVU57
.LBB208:
.LBI208:
	.loc 2 105 1 view .LVU58
.LBB209:
	.loc 2 107 3 view .LVU59
	.loc 2 107 10 is_stmt 0 view .LVU60
	leaq	.LC11(%rip), %rdi
	call	puts@PLT
.LVL12:
	.loc 2 107 10 view .LVU61
.LBE209:
.LBE208:
	.loc 1 18 5 is_stmt 1 view .LVU62
.LBB210:
.LBI210:
	.loc 2 105 1 view .LVU63
.LBB211:
	.loc 2 107 3 view .LVU64
	.loc 2 107 10 is_stmt 0 view .LVU65
	leaq	.LC12(%rip), %rdi
	call	puts@PLT
.LVL13:
	.loc 2 107 10 view .LVU66
.LBE211:
.LBE210:
	.loc 1 19 5 is_stmt 1 view .LVU67
.LBB212:
.LBI212:
	.loc 2 105 1 view .LVU68
.LBB213:
	.loc 2 107 3 view .LVU69
	.loc 2 107 10 is_stmt 0 view .LVU70
	leaq	.LC13(%rip), %rdi
	call	puts@PLT
.LVL14:
	.loc 2 107 10 view .LVU71
.LBE213:
.LBE212:
	.loc 1 20 5 is_stmt 1 view .LVU72
.LBB214:
.LBI214:
	.loc 2 105 1 view .LVU73
.LBB215:
	.loc 2 107 3 view .LVU74
	.loc 2 107 10 is_stmt 0 view .LVU75
	leaq	.LC14(%rip), %rdi
.LBE215:
.LBE214:
	.loc 1 21 1 view .LVU76
	addq	$8, %rsp
	.cfi_def_cfa_offset 8
.LBB217:
.LBB216:
	.loc 2 107 10 view .LVU77
	jmp	puts@PLT
.LVL15:
.LBE216:
.LBE217:
	.cfi_endproc
.LFE23:
	.size	mostrar_menu, .-mostrar_menu
	.section	.rodata.str1.8
	.align 8
.LC15:
	.string	"Indique el tipo de c\303\241lculo que quiere realizar:"
	.section	.rodata.str1.1
.LC16:
	.string	"1. \303\201rea"
.LC17:
	.string	"2. Per\303\255metro"
.LC18:
	.string	"Digite una opci\303\263n: "
.LC19:
	.string	"%d"
	.text
	.p2align 4
	.globl	mostrar_elegir_AP
	.type	mostrar_elegir_AP, @function
mostrar_elegir_AP:
.LFB24:
	.loc 1 24 1 is_stmt 1 view -0
	.cfi_startproc
	endbr64
	pushq	%rbp
	.cfi_def_cfa_offset 16
	.cfi_offset 6, -16
.LBB218:
.LBB219:
	.loc 2 107 10 is_stmt 0 view .LVU79
	leaq	.LC15(%rip), %rdi
.LBE219:
.LBE218:
	.loc 1 24 1 view .LVU80
	pushq	%rbx
	.cfi_def_cfa_offset 24
	.cfi_offset 3, -24
.LBB221:
.LBB222:
	.loc 2 107 10 view .LVU81
	leaq	.LC18(%rip), %rbx
.LBE222:
.LBE221:
	.loc 1 24 1 view .LVU82
	subq	$24, %rsp
	.cfi_def_cfa_offset 48
	.loc 1 24 1 view .LVU83
	movq	%fs:40, %rax
	movq	%rax, 8(%rsp)
	xorl	%eax, %eax
	.loc 1 25 5 is_stmt 1 view .LVU84
	.loc 1 26 5 view .LVU85
.LVL16:
.LBB224:
.LBI218:
	.loc 2 105 1 view .LVU86
.LBB220:
	.loc 2 107 3 view .LVU87
	leaq	4(%rsp), %rbp
	.loc 2 107 10 is_stmt 0 view .LVU88
	call	puts@PLT
.LVL17:
	.loc 2 107 10 view .LVU89
.LBE220:
.LBE224:
	.loc 1 27 5 is_stmt 1 view .LVU90
.LBB225:
.LBI225:
	.loc 2 105 1 view .LVU91
.LBB226:
	.loc 2 107 3 view .LVU92
	.loc 2 107 10 is_stmt 0 view .LVU93
	leaq	.LC16(%rip), %rdi
	call	puts@PLT
.LVL18:
	.loc 2 107 10 view .LVU94
.LBE226:
.LBE225:
	.loc 1 28 5 is_stmt 1 view .LVU95
.LBB227:
.LBI227:
	.loc 2 105 1 view .LVU96
.LBB228:
	.loc 2 107 3 view .LVU97
	.loc 2 107 10 is_stmt 0 view .LVU98
	leaq	.LC17(%rip), %rdi
	call	puts@PLT
.LVL19:
	.p2align 4,,10
	.p2align 3
.L7:
	.loc 2 107 10 view .LVU99
.LBE228:
.LBE227:
	.loc 1 30 5 is_stmt 1 discriminator 1 view .LVU100
	.loc 1 32 9 discriminator 1 view .LVU101
.LBB229:
.LBI221:
	.loc 2 105 1 discriminator 1 view .LVU102
.LBB223:
	.loc 2 107 3 discriminator 1 view .LVU103
	.loc 2 107 10 is_stmt 0 discriminator 1 view .LVU104
	movq	%rbx, %rsi
	movl	$1, %edi
	xorl	%eax, %eax
	call	__printf_chk@PLT
.LVL20:
	.loc 2 107 10 discriminator 1 view .LVU105
.LBE223:
.LBE229:
	.loc 1 33 9 is_stmt 1 discriminator 1 view .LVU106
	movq	%rbp, %rsi
	leaq	.LC19(%rip), %rdi
	xorl	%eax, %eax
	call	__isoc99_scanf@PLT
.LVL21:
	.loc 1 34 13 discriminator 1 view .LVU107
	.loc 1 34 26 is_stmt 0 discriminator 1 view .LVU108
	movl	4(%rsp), %eax
	.loc 1 34 5 discriminator 1 view .LVU109
	testl	%eax, %eax
	je	.L7
	cmpl	$2, %eax
	jg	.L7
	.loc 1 36 5 is_stmt 1 view .LVU110
	.loc 1 37 1 is_stmt 0 view .LVU111
	movq	8(%rsp), %rdx
	xorq	%fs:40, %rdx
	jne	.L9
	addq	$24, %rsp
	.cfi_remember_state
	.cfi_def_cfa_offset 24
	popq	%rbx
	.cfi_def_cfa_offset 16
	popq	%rbp
	.cfi_def_cfa_offset 8
	ret
.L9:
	.cfi_restore_state
	call	__stack_chk_fail@PLT
.LVL22:
	.cfi_endproc
.LFE24:
	.size	mostrar_elegir_AP, .-mostrar_elegir_AP
	.section	.rodata.str1.1
.LC20:
	.string	"1. Superficie"
.LC21:
	.string	"2. Volumen"
	.text
	.p2align 4
	.globl	mostrar_elegir_SV
	.type	mostrar_elegir_SV, @function
mostrar_elegir_SV:
.LFB25:
	.loc 1 40 1 is_stmt 1 view -0
	.cfi_startproc
	endbr64
	pushq	%rbp
	.cfi_def_cfa_offset 16
	.cfi_offset 6, -16
.LBB230:
.LBB231:
	.loc 2 107 10 is_stmt 0 view .LVU113
	leaq	.LC15(%rip), %rdi
.LBE231:
.LBE230:
	.loc 1 40 1 view .LVU114
	pushq	%rbx
	.cfi_def_cfa_offset 24
	.cfi_offset 3, -24
.LBB233:
.LBB234:
	.loc 2 107 10 view .LVU115
	leaq	.LC18(%rip), %rbx
.LBE234:
.LBE233:
	.loc 1 40 1 view .LVU116
	subq	$24, %rsp
	.cfi_def_cfa_offset 48
	.loc 1 40 1 view .LVU117
	movq	%fs:40, %rax
	movq	%rax, 8(%rsp)
	xorl	%eax, %eax
	.loc 1 41 5 is_stmt 1 view .LVU118
	.loc 1 42 5 view .LVU119
.LVL23:
.LBB236:
.LBI230:
	.loc 2 105 1 view .LVU120
.LBB232:
	.loc 2 107 3 view .LVU121
	leaq	4(%rsp), %rbp
	.loc 2 107 10 is_stmt 0 view .LVU122
	call	puts@PLT
.LVL24:
	.loc 2 107 10 view .LVU123
.LBE232:
.LBE236:
	.loc 1 43 5 is_stmt 1 view .LVU124
.LBB237:
.LBI237:
	.loc 2 105 1 view .LVU125
.LBB238:
	.loc 2 107 3 view .LVU126
	.loc 2 107 10 is_stmt 0 view .LVU127
	leaq	.LC20(%rip), %rdi
	call	puts@PLT
.LVL25:
	.loc 2 107 10 view .LVU128
.LBE238:
.LBE237:
	.loc 1 44 5 is_stmt 1 view .LVU129
.LBB239:
.LBI239:
	.loc 2 105 1 view .LVU130
.LBB240:
	.loc 2 107 3 view .LVU131
	.loc 2 107 10 is_stmt 0 view .LVU132
	leaq	.LC21(%rip), %rdi
	call	puts@PLT
.LVL26:
	.p2align 4,,10
	.p2align 3
.L13:
	.loc 2 107 10 view .LVU133
.LBE240:
.LBE239:
	.loc 1 46 5 is_stmt 1 discriminator 1 view .LVU134
	.loc 1 48 9 discriminator 1 view .LVU135
.LBB241:
.LBI233:
	.loc 2 105 1 discriminator 1 view .LVU136
.LBB235:
	.loc 2 107 3 discriminator 1 view .LVU137
	.loc 2 107 10 is_stmt 0 discriminator 1 view .LVU138
	movq	%rbx, %rsi
	movl	$1, %edi
	xorl	%eax, %eax
	call	__printf_chk@PLT
.LVL27:
	.loc 2 107 10 discriminator 1 view .LVU139
.LBE235:
.LBE241:
	.loc 1 49 9 is_stmt 1 discriminator 1 view .LVU140
	movq	%rbp, %rsi
	leaq	.LC19(%rip), %rdi
	xorl	%eax, %eax
	call	__isoc99_scanf@PLT
.LVL28:
	.loc 1 50 13 discriminator 1 view .LVU141
	.loc 1 50 26 is_stmt 0 discriminator 1 view .LVU142
	movl	4(%rsp), %eax
	.loc 1 50 5 discriminator 1 view .LVU143
	testl	%eax, %eax
	je	.L13
	cmpl	$2, %eax
	jg	.L13
	.loc 1 52 5 is_stmt 1 view .LVU144
	.loc 1 53 1 is_stmt 0 view .LVU145
	movq	8(%rsp), %rdx
	xorq	%fs:40, %rdx
	jne	.L15
	addq	$24, %rsp
	.cfi_remember_state
	.cfi_def_cfa_offset 24
	popq	%rbx
	.cfi_def_cfa_offset 16
	popq	%rbp
	.cfi_def_cfa_offset 8
	ret
.L15:
	.cfi_restore_state
	call	__stack_chk_fail@PLT
.LVL29:
	.cfi_endproc
.LFE25:
	.size	mostrar_elegir_SV, .-mostrar_elegir_SV
	.section	.rodata.str1.1
.LC22:
	.string	"\nResultados para %s:\n"
	.section	.rodata.str1.8
	.align 8
.LC23:
	.string	"El resultado de su c\303\241lculo es %.2f\n"
	.text
	.p2align 4
	.globl	mostrar_resultado
	.type	mostrar_resultado, @function
mostrar_resultado:
.LVL30:
.LFB26:
	.loc 1 56 1 is_stmt 1 view -0
	.cfi_startproc
	.loc 1 56 1 is_stmt 0 view .LVU147
	endbr64
	.loc 1 57 5 is_stmt 1 view .LVU148
.LVL31:
.LBB242:
.LBI242:
	.loc 2 105 1 view .LVU149
.LBB243:
	.loc 2 107 3 view .LVU150
.LBE243:
.LBE242:
	.loc 1 56 1 is_stmt 0 view .LVU151
	subq	$24, %rsp
	.cfi_def_cfa_offset 32
	.loc 1 56 1 view .LVU152
	movq	%rdi, %rdx
.LBB246:
.LBB244:
	.loc 2 107 10 view .LVU153
	leaq	.LC22(%rip), %rsi
	xorl	%eax, %eax
	movl	$1, %edi
.LVL32:
	.loc 2 107 10 view .LVU154
.LBE244:
.LBE246:
	.loc 1 56 1 view .LVU155
	movss	%xmm0, 12(%rsp)
.LBB247:
.LBB245:
	.loc 2 107 10 view .LVU156
	call	__printf_chk@PLT
.LVL33:
	.loc 2 107 10 view .LVU157
.LBE245:
.LBE247:
	.loc 1 58 5 is_stmt 1 view .LVU158
.LBB248:
.LBI248:
	.loc 2 105 1 view .LVU159
.LBB249:
	.loc 2 107 3 view .LVU160
.LBE249:
.LBE248:
	.loc 1 58 5 is_stmt 0 view .LVU161
	movss	12(%rsp), %xmm0
.LBB252:
.LBB250:
	.loc 2 107 10 view .LVU162
	movl	$1, %edi
	leaq	.LC23(%rip), %rsi
	movl	$1, %eax
.LBE250:
.LBE252:
	.loc 1 59 1 view .LVU163
	addq	$24, %rsp
	.cfi_def_cfa_offset 8
	.loc 1 58 5 view .LVU164
	cvtss2sd	%xmm0, %xmm0
.LBB253:
.LBB251:
	.loc 2 107 10 view .LVU165
	jmp	__printf_chk@PLT
.LVL34:
.LBE251:
.LBE253:
	.cfi_endproc
.LFE26:
	.size	mostrar_resultado, .-mostrar_resultado
	.section	.rodata.str1.8
	.align 8
.LC24:
	.string	"Ingrese la base del tri\303\241ngulo: "
	.section	.rodata.str1.1
.LC25:
	.string	"%f"
	.section	.rodata.str1.8
	.align 8
.LC26:
	.string	"Ingrese la altura del tri\303\241ngulo: "
	.align 8
.LC27:
	.string	"Ingrese el lado 1 del tri\303\241ngulo: "
	.align 8
.LC28:
	.string	"Ingrese el lado 2 del tri\303\241ngulo: "
	.align 8
.LC29:
	.string	"Ingrese el lado 3 del tri\303\241ngulo: "
	.align 8
.LC30:
	.string	"Ingrese la base del paralelogramo: "
	.align 8
.LC31:
	.string	"Ingrese la altura del paralelogramo: "
	.align 8
.LC32:
	.string	"Ingrese el lado a del paralelogramo: "
	.align 8
.LC33:
	.string	"Ingrese el lado b del paralelogramo: "
	.align 8
.LC34:
	.string	"Ingrese un lado del cuadrado: "
	.align 8
.LC35:
	.string	"Ingrese el largo del rect\303\241ngulo: "
	.align 8
.LC36:
	.string	"Ingrese el ancho del rect\303\241ngulo: "
	.align 8
.LC37:
	.string	"Ingrese la diagonal 1 del rombo: "
	.align 8
.LC38:
	.string	"Ingrese la diagonal 2 del rombo: "
	.section	.rodata.str1.1
.LC39:
	.string	"Ingrese un lado del rombo: "
	.section	.rodata.str1.8
	.align 8
.LC40:
	.string	"Ingrese la Base Mayor del trapecio: "
	.align 8
.LC41:
	.string	"Ingrese la Base Menor del trapecio: "
	.align 8
.LC42:
	.string	"Ingrese la altura del trapecio: "
	.align 8
.LC43:
	.string	"Ingrese el lado 1 del trapecio: "
	.align 8
.LC44:
	.string	"Ingrese el lado 2 del trapecio: "
	.align 8
.LC45:
	.string	"Ingrese el lado 3 del trapecio: "
	.align 8
.LC46:
	.string	"Ingrese el lado 4 del trapecio: "
	.align 8
.LC47:
	.string	"Ingrese el radio del c\303\255rculo: "
	.align 8
.LC48:
	.string	"Ingrese el n\303\272mero de lados del pol\303\255gono: "
	.align 8
.LC49:
	.string	"Ingrese la longitud de un lado del pol\303\255gono: "
	.align 8
.LC50:
	.string	"Ingrese la el apotema del pol\303\255gono: "
	.section	.rodata.str1.1
.LC51:
	.string	"Ingrese un lado del cubo: "
	.section	.rodata.str1.8
	.align 8
.LC52:
	.string	"Ingrese el largo del cuboide: "
	.align 8
.LC53:
	.string	"Ingrese el ancho del cuboide: "
	.section	.rodata.str1.1
.LC54:
	.string	"Ingrese el alto del cuboide: "
	.section	.rodata.str1.8
	.align 8
.LC55:
	.string	"Ingrese el radio del cilindro: "
	.align 8
.LC56:
	.string	"Ingrese la altura del cilindro: "
	.align 8
.LC57:
	.string	"Ingrese el radio de la esfera: "
	.section	.rodata.str1.1
.LC58:
	.string	"Ingrese el radio del cono: "
	.section	.rodata.str1.8
	.align 8
.LC59:
	.string	"Ingrese la generatriz del cono: "
	.section	.rodata.str1.1
.LC60:
	.string	"Ingrese la altura del cono: "
.LC61:
	.string	"Programa finalizado."
	.section	.rodata.str1.8
	.align 8
.LC62:
	.string	"Opci\303\263n no v\303\241lida. Intente de nuevo."
	.text
	.p2align 4
	.globl	solicitar_presentar_datos
	.type	solicitar_presentar_datos, @function
solicitar_presentar_datos:
.LVL35:
.LFB27:
	.loc 1 62 1 is_stmt 1 view -0
	.cfi_startproc
	.loc 1 62 1 is_stmt 0 view .LVU167
	endbr64
	pushq	%rbx
	.cfi_def_cfa_offset 16
	.cfi_offset 3, -16
	subq	$32, %rsp
	.cfi_def_cfa_offset 48
	.loc 1 62 1 view .LVU168
	movq	%fs:40, %rax
	movq	%rax, 24(%rsp)
	xorl	%eax, %eax
	.loc 1 63 5 is_stmt 1 view .LVU169
	.loc 1 64 5 view .LVU170
	cmpl	$13, %edi
	ja	.L19
	leaq	.L21(%rip), %rcx
	movl	%edi, %edx
	movl	%edi, %ebx
	movslq	(%rcx,%rdx,4), %rax
	addq	%rcx, %rax
	notrack jmp	*%rax
	.section	.rodata
	.align 4
	.align 4
.L21:
	.long	.L34-.L21
	.long	.L33-.L21
	.long	.L32-.L21
	.long	.L31-.L21
	.long	.L30-.L21
	.long	.L29-.L21
	.long	.L28-.L21
	.long	.L27-.L21
	.long	.L26-.L21
	.long	.L25-.L21
	.long	.L24-.L21
	.long	.L23-.L21
	.long	.L22-.L21
	.long	.L20-.L21
	.text
	.p2align 4,,10
	.p2align 3
.L22:
	.loc 1 320 13 view .LVU171
	.loc 1 320 25 is_stmt 0 view .LVU172
	xorl	%eax, %eax
	call	mostrar_elegir_SV
.LVL36:
	.loc 1 321 13 is_stmt 1 view .LVU173
.LBB254:
.LBB255:
.LBB256:
	.loc 2 107 10 is_stmt 0 view .LVU174
	leaq	.LC57(%rip), %rsi
	movl	$1, %edi
.LBE256:
.LBE255:
.LBE254:
	.loc 1 321 15 view .LVU175
	cmpl	$1, %eax
.LBB261:
.LBB259:
.LBB257:
	.loc 2 107 10 view .LVU176
	movl	$0, %eax
.LVL37:
	.loc 2 107 10 view .LVU177
.LBE257:
.LBE259:
.LBE261:
	.loc 1 321 15 view .LVU178
	je	.L51
.LBB262:
	.loc 1 329 17 is_stmt 1 view .LVU179
	.loc 1 330 17 view .LVU180
.LVL38:
.LBB263:
.LBI263:
	.loc 2 105 1 view .LVU181
.LBB264:
	.loc 2 107 3 view .LVU182
	.loc 2 107 10 is_stmt 0 view .LVU183
	call	__printf_chk@PLT
.LVL39:
	.loc 2 107 10 view .LVU184
.LBE264:
.LBE263:
	.loc 1 331 17 is_stmt 1 view .LVU185
	leaq	20(%rsp), %rsi
	leaq	.LC25(%rip), %rdi
	xorl	%eax, %eax
	call	__isoc99_scanf@PLT
.LVL40:
	.loc 1 332 17 view .LVU186
	.loc 1 332 24 is_stmt 0 view .LVU187
	movss	20(%rsp), %xmm0
	call	calcular_volumen_esfera@PLT
.LVL41:
	cvttss2sil	%xmm0, %eax
	.loc 1 333 17 is_stmt 1 view .LVU188
	jmp	.L18
	.p2align 4,,10
	.p2align 3
.L20:
	.loc 1 333 17 is_stmt 0 view .LVU189
.LBE262:
	.loc 1 339 13 is_stmt 1 view .LVU190
	.loc 1 339 25 is_stmt 0 view .LVU191
	xorl	%eax, %eax
	call	mostrar_elegir_SV
.LVL42:
	.loc 1 340 13 is_stmt 1 view .LVU192
.LBB265:
.LBB266:
.LBB267:
	.loc 2 107 10 is_stmt 0 view .LVU193
	leaq	.LC58(%rip), %rsi
	movl	$1, %edi
.LBE267:
.LBE266:
.LBE265:
	.loc 1 340 15 view .LVU194
	cmpl	$1, %eax
.LBB274:
.LBB270:
.LBB268:
	.loc 2 107 10 view .LVU195
	movl	$0, %eax
.LVL43:
	.loc 2 107 10 view .LVU196
.LBE268:
.LBE270:
.LBE274:
	.loc 1 340 15 view .LVU197
	je	.L52
.LBB275:
	.loc 1 350 17 is_stmt 1 view .LVU198
	.loc 1 351 17 view .LVU199
.LVL44:
.LBB276:
.LBI276:
	.loc 2 105 1 view .LVU200
.LBB277:
	.loc 2 107 3 view .LVU201
	.loc 2 107 10 is_stmt 0 view .LVU202
	call	__printf_chk@PLT
.LVL45:
	.loc 2 107 10 view .LVU203
.LBE277:
.LBE276:
	.loc 1 352 17 is_stmt 1 view .LVU204
	leaq	16(%rsp), %rsi
	leaq	.LC25(%rip), %rdi
	xorl	%eax, %eax
	call	__isoc99_scanf@PLT
.LVL46:
	.loc 1 353 17 view .LVU205
.LBB278:
.LBI278:
	.loc 2 105 1 view .LVU206
.LBB279:
	.loc 2 107 3 view .LVU207
	.loc 2 107 10 is_stmt 0 view .LVU208
	leaq	.LC60(%rip), %rsi
	movl	$1, %edi
	xorl	%eax, %eax
	call	__printf_chk@PLT
.LVL47:
	.loc 2 107 10 view .LVU209
.LBE279:
.LBE278:
	.loc 1 354 17 is_stmt 1 view .LVU210
	leaq	20(%rsp), %rsi
	leaq	.LC25(%rip), %rdi
	xorl	%eax, %eax
	call	__isoc99_scanf@PLT
.LVL48:
	.loc 1 355 17 view .LVU211
	.loc 1 355 24 is_stmt 0 view .LVU212
	movss	20(%rsp), %xmm1
	movss	16(%rsp), %xmm0
	call	calcular_volumen_cono_circular_recto@PLT
.LVL49:
	cvttss2sil	%xmm0, %eax
	.loc 1 356 17 is_stmt 1 view .LVU213
	jmp	.L18
	.p2align 4,,10
	.p2align 3
.L34:
	.loc 1 356 17 is_stmt 0 view .LVU214
.LBE275:
	.loc 1 362 13 is_stmt 1 view .LVU215
.LVL50:
.LBB280:
.LBI280:
	.loc 2 105 1 view .LVU216
.LBB281:
	.loc 2 107 3 view .LVU217
	.loc 2 107 10 is_stmt 0 view .LVU218
	leaq	.LC61(%rip), %rsi
	movl	$1, %edi
	xorl	%eax, %eax
	call	__printf_chk@PLT
.LVL51:
.LBE281:
.LBE280:
	.loc 1 371 12 view .LVU219
	movl	%ebx, %eax
.LVL52:
	.p2align 4,,10
	.p2align 3
.L18:
	.loc 1 372 1 view .LVU220
	movq	24(%rsp), %rcx
	xorq	%fs:40, %rcx
	jne	.L53
	addq	$32, %rsp
	.cfi_remember_state
	.cfi_def_cfa_offset 16
	popq	%rbx
	.cfi_def_cfa_offset 8
	ret
.LVL53:
	.p2align 4,,10
	.p2align 3
.L33:
	.cfi_restore_state
	.loc 1 67 13 is_stmt 1 view .LVU221
	.loc 1 67 25 is_stmt 0 view .LVU222
	xorl	%eax, %eax
	call	mostrar_elegir_AP
.LVL54:
	.loc 1 68 13 is_stmt 1 view .LVU223
	.loc 1 68 16 is_stmt 0 view .LVU224
	cmpl	$1, %eax
	je	.L54
.LBB282:
	.loc 1 78 17 is_stmt 1 view .LVU225
	.loc 1 79 17 view .LVU226
.LVL55:
.LBB283:
.LBI283:
	.loc 2 105 1 view .LVU227
.LBB284:
	.loc 2 107 3 view .LVU228
	.loc 2 107 10 is_stmt 0 view .LVU229
	leaq	.LC27(%rip), %rsi
	movl	$1, %edi
	xorl	%eax, %eax
.LVL56:
	.loc 2 107 10 view .LVU230
	call	__printf_chk@PLT
.LVL57:
	.loc 2 107 10 view .LVU231
.LBE284:
.LBE283:
	.loc 1 80 17 is_stmt 1 view .LVU232
	leaq	12(%rsp), %rsi
	leaq	.LC25(%rip), %rdi
	xorl	%eax, %eax
	call	__isoc99_scanf@PLT
.LVL58:
	.loc 1 81 17 view .LVU233
.LBB285:
.LBI285:
	.loc 2 105 1 view .LVU234
.LBB286:
	.loc 2 107 3 view .LVU235
	.loc 2 107 10 is_stmt 0 view .LVU236
	leaq	.LC28(%rip), %rsi
	movl	$1, %edi
	xorl	%eax, %eax
	call	__printf_chk@PLT
.LVL59:
	.loc 2 107 10 view .LVU237
.LBE286:
.LBE285:
	.loc 1 82 17 is_stmt 1 view .LVU238
	leaq	16(%rsp), %rsi
	leaq	.LC25(%rip), %rdi
	xorl	%eax, %eax
	call	__isoc99_scanf@PLT
.LVL60:
	.loc 1 83 17 view .LVU239
.LBB287:
.LBI287:
	.loc 2 105 1 view .LVU240
.LBB288:
	.loc 2 107 3 view .LVU241
	.loc 2 107 10 is_stmt 0 view .LVU242
	leaq	.LC29(%rip), %rsi
	movl	$1, %edi
	xorl	%eax, %eax
	call	__printf_chk@PLT
.LVL61:
	.loc 2 107 10 view .LVU243
.LBE288:
.LBE287:
	.loc 1 84 17 is_stmt 1 view .LVU244
	leaq	20(%rsp), %rsi
	leaq	.LC25(%rip), %rdi
	xorl	%eax, %eax
	call	__isoc99_scanf@PLT
.LVL62:
	.loc 1 85 17 view .LVU245
	.loc 1 85 24 is_stmt 0 view .LVU246
	movss	20(%rsp), %xmm2
	movss	16(%rsp), %xmm1
	movss	12(%rsp), %xmm0
	call	calcular_perimetro_triangulo@PLT
.LVL63:
	cvttss2sil	%xmm0, %eax
	.loc 1 86 17 is_stmt 1 view .LVU247
	jmp	.L18
	.p2align 4,,10
	.p2align 3
.L32:
	.loc 1 86 17 is_stmt 0 view .LVU248
.LBE282:
	.loc 1 92 13 is_stmt 1 view .LVU249
	.loc 1 92 25 is_stmt 0 view .LVU250
	xorl	%eax, %eax
	call	mostrar_elegir_AP
.LVL64:
	.loc 1 93 13 is_stmt 1 view .LVU251
	.loc 1 93 16 is_stmt 0 view .LVU252
	cmpl	$1, %eax
	je	.L55
.LBB289:
	.loc 1 103 17 is_stmt 1 view .LVU253
	.loc 1 104 17 view .LVU254
.LVL65:
.LBB290:
.LBI290:
	.loc 2 105 1 view .LVU255
.LBB291:
	.loc 2 107 3 view .LVU256
	.loc 2 107 10 is_stmt 0 view .LVU257
	leaq	.LC32(%rip), %rsi
	movl	$1, %edi
	xorl	%eax, %eax
.LVL66:
	.loc 2 107 10 view .LVU258
	call	__printf_chk@PLT
.LVL67:
	.loc 2 107 10 view .LVU259
.LBE291:
.LBE290:
	.loc 1 105 17 is_stmt 1 view .LVU260
	leaq	16(%rsp), %rsi
	leaq	.LC25(%rip), %rdi
	xorl	%eax, %eax
	call	__isoc99_scanf@PLT
.LVL68:
	.loc 1 106 17 view .LVU261
.LBB292:
.LBI292:
	.loc 2 105 1 view .LVU262
.LBB293:
	.loc 2 107 3 view .LVU263
	.loc 2 107 10 is_stmt 0 view .LVU264
	leaq	.LC33(%rip), %rsi
	movl	$1, %edi
	xorl	%eax, %eax
	call	__printf_chk@PLT
.LVL69:
	.loc 2 107 10 view .LVU265
.LBE293:
.LBE292:
	.loc 1 107 17 is_stmt 1 view .LVU266
	leaq	20(%rsp), %rsi
	leaq	.LC25(%rip), %rdi
	xorl	%eax, %eax
	call	__isoc99_scanf@PLT
.LVL70:
	.loc 1 108 17 view .LVU267
	.loc 1 108 24 is_stmt 0 view .LVU268
	movss	20(%rsp), %xmm1
	movss	16(%rsp), %xmm0
	call	calcular_perimetro_paralelogramo@PLT
.LVL71:
	cvttss2sil	%xmm0, %eax
	.loc 1 109 17 is_stmt 1 view .LVU269
	jmp	.L18
	.p2align 4,,10
	.p2align 3
.L31:
	.loc 1 109 17 is_stmt 0 view .LVU270
.LBE289:
	.loc 1 115 13 is_stmt 1 view .LVU271
	.loc 1 115 25 is_stmt 0 view .LVU272
	xorl	%eax, %eax
	call	mostrar_elegir_AP
.LVL72:
	.loc 1 116 13 is_stmt 1 view .LVU273
.LBB294:
.LBB295:
.LBB296:
	.loc 2 107 10 is_stmt 0 view .LVU274
	leaq	.LC34(%rip), %rsi
	movl	$1, %edi
.LBE296:
.LBE295:
.LBE294:
	.loc 1 116 16 view .LVU275
	cmpl	$1, %eax
.LBB301:
.LBB299:
.LBB297:
	.loc 2 107 10 view .LVU276
	movl	$0, %eax
.LVL73:
	.loc 2 107 10 view .LVU277
.LBE297:
.LBE299:
.LBE301:
	.loc 1 116 16 view .LVU278
	je	.L56
.LBB302:
	.loc 1 124 17 is_stmt 1 view .LVU279
	.loc 1 125 17 view .LVU280
.LVL74:
.LBB303:
.LBI303:
	.loc 2 105 1 view .LVU281
.LBB304:
	.loc 2 107 3 view .LVU282
	.loc 2 107 10 is_stmt 0 view .LVU283
	call	__printf_chk@PLT
.LVL75:
	.loc 2 107 10 view .LVU284
.LBE304:
.LBE303:
	.loc 1 126 17 is_stmt 1 view .LVU285
	leaq	20(%rsp), %rsi
	leaq	.LC25(%rip), %rdi
	xorl	%eax, %eax
	call	__isoc99_scanf@PLT
.LVL76:
	.loc 1 127 17 view .LVU286
	.loc 1 127 24 is_stmt 0 view .LVU287
	movss	20(%rsp), %xmm0
	call	calcular_perimetro_cuadrado@PLT
.LVL77:
	cvttss2sil	%xmm0, %eax
	.loc 1 128 17 is_stmt 1 view .LVU288
	jmp	.L18
	.p2align 4,,10
	.p2align 3
.L30:
	.loc 1 128 17 is_stmt 0 view .LVU289
.LBE302:
	.loc 1 134 13 is_stmt 1 view .LVU290
	.loc 1 134 25 is_stmt 0 view .LVU291
	xorl	%eax, %eax
	call	mostrar_elegir_AP
.LVL78:
	.loc 1 135 13 is_stmt 1 view .LVU292
.LBB305:
.LBB306:
.LBB307:
	.loc 2 107 10 is_stmt 0 view .LVU293
	leaq	.LC35(%rip), %rsi
	movl	$1, %edi
.LBE307:
.LBE306:
.LBE305:
	.loc 1 135 15 view .LVU294
	cmpl	$1, %eax
.LBB314:
.LBB310:
.LBB308:
	.loc 2 107 10 view .LVU295
	movl	$0, %eax
.LVL79:
	.loc 2 107 10 view .LVU296
.LBE308:
.LBE310:
.LBE314:
	.loc 1 135 15 view .LVU297
	je	.L57
.LBB315:
	.loc 1 145 17 is_stmt 1 view .LVU298
	.loc 1 146 17 view .LVU299
.LVL80:
.LBB316:
.LBI316:
	.loc 2 105 1 view .LVU300
.LBB317:
	.loc 2 107 3 view .LVU301
	.loc 2 107 10 is_stmt 0 view .LVU302
	call	__printf_chk@PLT
.LVL81:
	.loc 2 107 10 view .LVU303
.LBE317:
.LBE316:
	.loc 1 147 17 is_stmt 1 view .LVU304
	leaq	16(%rsp), %rsi
	leaq	.LC25(%rip), %rdi
	xorl	%eax, %eax
	call	__isoc99_scanf@PLT
.LVL82:
	.loc 1 148 17 view .LVU305
.LBB318:
.LBI318:
	.loc 2 105 1 view .LVU306
.LBB319:
	.loc 2 107 3 view .LVU307
	.loc 2 107 10 is_stmt 0 view .LVU308
	leaq	.LC36(%rip), %rsi
	movl	$1, %edi
	xorl	%eax, %eax
	call	__printf_chk@PLT
.LVL83:
	.loc 2 107 10 view .LVU309
.LBE319:
.LBE318:
	.loc 1 149 17 is_stmt 1 view .LVU310
	leaq	20(%rsp), %rsi
	leaq	.LC25(%rip), %rdi
	xorl	%eax, %eax
	call	__isoc99_scanf@PLT
.LVL84:
	.loc 1 150 17 view .LVU311
	.loc 1 150 24 is_stmt 0 view .LVU312
	movss	20(%rsp), %xmm1
	movss	16(%rsp), %xmm0
	call	calcular_perimetro_rectangulo@PLT
.LVL85:
	cvttss2sil	%xmm0, %eax
	.loc 1 151 17 is_stmt 1 view .LVU313
	jmp	.L18
	.p2align 4,,10
	.p2align 3
.L29:
	.loc 1 151 17 is_stmt 0 view .LVU314
.LBE315:
	.loc 1 157 13 is_stmt 1 view .LVU315
	.loc 1 157 25 is_stmt 0 view .LVU316
	xorl	%eax, %eax
	call	mostrar_elegir_AP
.LVL86:
	.loc 1 158 13 is_stmt 1 view .LVU317
	.loc 1 158 15 is_stmt 0 view .LVU318
	cmpl	$1, %eax
	je	.L58
.LBB320:
	.loc 1 168 17 is_stmt 1 view .LVU319
	.loc 1 169 17 view .LVU320
.LVL87:
.LBB321:
.LBI321:
	.loc 2 105 1 view .LVU321
.LBB322:
	.loc 2 107 3 view .LVU322
	.loc 2 107 10 is_stmt 0 view .LVU323
	leaq	.LC39(%rip), %rsi
	movl	$1, %edi
	xorl	%eax, %eax
.LVL88:
	.loc 2 107 10 view .LVU324
	call	__printf_chk@PLT
.LVL89:
	.loc 2 107 10 view .LVU325
.LBE322:
.LBE321:
	.loc 1 170 17 is_stmt 1 view .LVU326
	leaq	20(%rsp), %rsi
	leaq	.LC25(%rip), %rdi
	xorl	%eax, %eax
	call	__isoc99_scanf@PLT
.LVL90:
	.loc 1 171 17 view .LVU327
	.loc 1 171 24 is_stmt 0 view .LVU328
	movss	20(%rsp), %xmm0
	call	calcular_perimetro_rombo@PLT
.LVL91:
	cvttss2sil	%xmm0, %eax
	.loc 1 172 17 is_stmt 1 view .LVU329
	jmp	.L18
	.p2align 4,,10
	.p2align 3
.L28:
	.loc 1 172 17 is_stmt 0 view .LVU330
.LBE320:
	.loc 1 178 13 is_stmt 1 view .LVU331
	.loc 1 178 25 is_stmt 0 view .LVU332
	xorl	%eax, %eax
	call	mostrar_elegir_AP
.LVL92:
	.loc 1 179 13 is_stmt 1 view .LVU333
	.loc 1 179 15 is_stmt 0 view .LVU334
	cmpl	$1, %eax
	je	.L59
.LBB323:
	.loc 1 191 17 is_stmt 1 view .LVU335
	.loc 1 192 17 view .LVU336
.LVL93:
.LBB324:
.LBI324:
	.loc 2 105 1 view .LVU337
.LBB325:
	.loc 2 107 3 view .LVU338
	.loc 2 107 10 is_stmt 0 view .LVU339
	leaq	.LC43(%rip), %rsi
	movl	$1, %edi
	xorl	%eax, %eax
.LVL94:
	.loc 2 107 10 view .LVU340
	call	__printf_chk@PLT
.LVL95:
	.loc 2 107 10 view .LVU341
.LBE325:
.LBE324:
	.loc 1 193 17 is_stmt 1 view .LVU342
	leaq	8(%rsp), %rsi
	leaq	.LC25(%rip), %rdi
	xorl	%eax, %eax
	call	__isoc99_scanf@PLT
.LVL96:
	.loc 1 194 17 view .LVU343
.LBB326:
.LBI326:
	.loc 2 105 1 view .LVU344
.LBB327:
	.loc 2 107 3 view .LVU345
	.loc 2 107 10 is_stmt 0 view .LVU346
	leaq	.LC44(%rip), %rsi
	movl	$1, %edi
	xorl	%eax, %eax
	call	__printf_chk@PLT
.LVL97:
	.loc 2 107 10 view .LVU347
.LBE327:
.LBE326:
	.loc 1 195 17 is_stmt 1 view .LVU348
	leaq	12(%rsp), %rsi
	leaq	.LC25(%rip), %rdi
	xorl	%eax, %eax
	call	__isoc99_scanf@PLT
.LVL98:
	.loc 1 196 17 view .LVU349
.LBB328:
.LBI328:
	.loc 2 105 1 view .LVU350
.LBB329:
	.loc 2 107 3 view .LVU351
	.loc 2 107 10 is_stmt 0 view .LVU352
	leaq	.LC45(%rip), %rsi
	movl	$1, %edi
	xorl	%eax, %eax
	call	__printf_chk@PLT
.LVL99:
	.loc 2 107 10 view .LVU353
.LBE329:
.LBE328:
	.loc 1 197 17 is_stmt 1 view .LVU354
	leaq	16(%rsp), %rsi
	leaq	.LC25(%rip), %rdi
	xorl	%eax, %eax
	call	__isoc99_scanf@PLT
.LVL100:
	.loc 1 198 17 view .LVU355
.LBB330:
.LBI330:
	.loc 2 105 1 view .LVU356
.LBB331:
	.loc 2 107 3 view .LVU357
	.loc 2 107 10 is_stmt 0 view .LVU358
	leaq	.LC46(%rip), %rsi
	movl	$1, %edi
	xorl	%eax, %eax
	call	__printf_chk@PLT
.LVL101:
	.loc 2 107 10 view .LVU359
.LBE331:
.LBE330:
	.loc 1 199 17 is_stmt 1 view .LVU360
	leaq	20(%rsp), %rsi
	leaq	.LC25(%rip), %rdi
	xorl	%eax, %eax
	call	__isoc99_scanf@PLT
.LVL102:
	.loc 1 200 17 view .LVU361
	.loc 1 200 24 is_stmt 0 view .LVU362
	movss	20(%rsp), %xmm3
	movss	16(%rsp), %xmm2
	movss	12(%rsp), %xmm1
	movss	8(%rsp), %xmm0
	call	calcular_perimetro_trapecio@PLT
.LVL103:
	cvttss2sil	%xmm0, %eax
	.loc 1 201 17 is_stmt 1 view .LVU363
	jmp	.L18
	.p2align 4,,10
	.p2align 3
.L27:
	.loc 1 201 17 is_stmt 0 view .LVU364
.LBE323:
	.loc 1 207 13 is_stmt 1 view .LVU365
	.loc 1 207 25 is_stmt 0 view .LVU366
	xorl	%eax, %eax
	call	mostrar_elegir_AP
.LVL104:
	.loc 1 208 13 is_stmt 1 view .LVU367
.LBB332:
.LBB333:
.LBB334:
	.loc 2 107 10 is_stmt 0 view .LVU368
	leaq	.LC47(%rip), %rsi
	movl	$1, %edi
.LBE334:
.LBE333:
.LBE332:
	.loc 1 208 15 view .LVU369
	cmpl	$1, %eax
.LBB339:
.LBB337:
.LBB335:
	.loc 2 107 10 view .LVU370
	movl	$0, %eax
.LVL105:
	.loc 2 107 10 view .LVU371
.LBE335:
.LBE337:
.LBE339:
	.loc 1 208 15 view .LVU372
	je	.L60
.LBB340:
	.loc 1 216 17 is_stmt 1 view .LVU373
	.loc 1 217 17 view .LVU374
.LVL106:
.LBB341:
.LBI341:
	.loc 2 105 1 view .LVU375
.LBB342:
	.loc 2 107 3 view .LVU376
	.loc 2 107 10 is_stmt 0 view .LVU377
	call	__printf_chk@PLT
.LVL107:
	.loc 2 107 10 view .LVU378
.LBE342:
.LBE341:
	.loc 1 218 17 is_stmt 1 view .LVU379
	leaq	20(%rsp), %rsi
	leaq	.LC25(%rip), %rdi
	xorl	%eax, %eax
	call	__isoc99_scanf@PLT
.LVL108:
	.loc 1 219 17 view .LVU380
	.loc 1 219 24 is_stmt 0 view .LVU381
	movss	20(%rsp), %xmm0
	call	calcular_perimetro_circulo@PLT
.LVL109:
	cvttss2sil	%xmm0, %eax
	.loc 1 220 17 is_stmt 1 view .LVU382
	jmp	.L18
	.p2align 4,,10
	.p2align 3
.L26:
	.loc 1 220 17 is_stmt 0 view .LVU383
.LBE340:
	.loc 1 226 13 is_stmt 1 view .LVU384
	.loc 1 226 25 is_stmt 0 view .LVU385
	xorl	%eax, %eax
	call	mostrar_elegir_AP
.LVL110:
	.loc 1 227 13 is_stmt 1 view .LVU386
.LBB343:
.LBB344:
.LBB345:
	.loc 2 107 10 is_stmt 0 view .LVU387
	leaq	.LC48(%rip), %rsi
	movl	$1, %edi
.LBE345:
.LBE344:
.LBE343:
	.loc 1 227 15 view .LVU388
	cmpl	$1, %eax
.LBB354:
.LBB348:
.LBB346:
	.loc 2 107 10 view .LVU389
	movl	$0, %eax
.LVL111:
	.loc 2 107 10 view .LVU390
.LBE346:
.LBE348:
.LBE354:
	.loc 1 227 15 view .LVU391
	je	.L61
.LBB355:
	.loc 1 239 17 is_stmt 1 view .LVU392
	.loc 1 239 33 view .LVU393
	.loc 1 240 17 view .LVU394
.LVL112:
.LBB356:
.LBI356:
	.loc 2 105 1 view .LVU395
.LBB357:
	.loc 2 107 3 view .LVU396
	.loc 2 107 10 is_stmt 0 view .LVU397
	call	__printf_chk@PLT
.LVL113:
	.loc 2 107 10 view .LVU398
.LBE357:
.LBE356:
	.loc 1 241 17 is_stmt 1 view .LVU399
	leaq	20(%rsp), %rsi
	leaq	.LC19(%rip), %rdi
	xorl	%eax, %eax
	call	__isoc99_scanf@PLT
.LVL114:
	.loc 1 242 17 view .LVU400
.LBB358:
.LBI358:
	.loc 2 105 1 view .LVU401
.LBB359:
	.loc 2 107 3 view .LVU402
	.loc 2 107 10 is_stmt 0 view .LVU403
	leaq	.LC49(%rip), %rsi
	movl	$1, %edi
	xorl	%eax, %eax
	call	__printf_chk@PLT
.LVL115:
	.loc 2 107 10 view .LVU404
.LBE359:
.LBE358:
	.loc 1 243 17 is_stmt 1 view .LVU405
	leaq	16(%rsp), %rsi
	leaq	.LC25(%rip), %rdi
	xorl	%eax, %eax
	call	__isoc99_scanf@PLT
.LVL116:
	.loc 1 244 17 view .LVU406
	.loc 1 244 24 is_stmt 0 view .LVU407
	movss	16(%rsp), %xmm0
	movl	20(%rsp), %edi
	call	calcular_perimetro_poligono_regular@PLT
.LVL117:
	cvttss2sil	%xmm0, %eax
	.loc 1 245 17 is_stmt 1 view .LVU408
	jmp	.L18
	.p2align 4,,10
	.p2align 3
.L25:
	.loc 1 245 17 is_stmt 0 view .LVU409
.LBE355:
	.loc 1 251 13 is_stmt 1 view .LVU410
	.loc 1 251 25 is_stmt 0 view .LVU411
	xorl	%eax, %eax
	call	mostrar_elegir_SV
.LVL118:
	.loc 1 252 13 is_stmt 1 view .LVU412
.LBB360:
.LBB361:
.LBB362:
	.loc 2 107 10 is_stmt 0 view .LVU413
	leaq	.LC51(%rip), %rsi
	movl	$1, %edi
.LBE362:
.LBE361:
.LBE360:
	.loc 1 252 15 view .LVU414
	cmpl	$1, %eax
.LBB367:
.LBB365:
.LBB363:
	.loc 2 107 10 view .LVU415
	movl	$0, %eax
.LVL119:
	.loc 2 107 10 view .LVU416
.LBE363:
.LBE365:
.LBE367:
	.loc 1 252 15 view .LVU417
	je	.L62
.LBB368:
	.loc 1 260 17 is_stmt 1 view .LVU418
	.loc 1 261 17 view .LVU419
.LVL120:
.LBB369:
.LBI369:
	.loc 2 105 1 view .LVU420
.LBB370:
	.loc 2 107 3 view .LVU421
	.loc 2 107 10 is_stmt 0 view .LVU422
	call	__printf_chk@PLT
.LVL121:
	.loc 2 107 10 view .LVU423
.LBE370:
.LBE369:
	.loc 1 262 17 is_stmt 1 view .LVU424
	leaq	20(%rsp), %rsi
	leaq	.LC25(%rip), %rdi
	xorl	%eax, %eax
	call	__isoc99_scanf@PLT
.LVL122:
	.loc 1 263 17 view .LVU425
	.loc 1 263 24 is_stmt 0 view .LVU426
	movss	20(%rsp), %xmm0
	call	calcular_volumen_cubo@PLT
.LVL123:
	cvttss2sil	%xmm0, %eax
	.loc 1 264 17 is_stmt 1 view .LVU427
	jmp	.L18
	.p2align 4,,10
	.p2align 3
.L24:
	.loc 1 264 17 is_stmt 0 view .LVU428
.LBE368:
	.loc 1 270 13 is_stmt 1 view .LVU429
	.loc 1 270 25 is_stmt 0 view .LVU430
	xorl	%eax, %eax
	call	mostrar_elegir_SV
.LVL124:
	.loc 1 271 13 is_stmt 1 view .LVU431
.LBB371:
.LBB372:
.LBB373:
	.loc 2 107 10 is_stmt 0 view .LVU432
	leaq	.LC52(%rip), %rsi
	movl	$1, %edi
.LBE373:
.LBE372:
.LBE371:
	.loc 1 271 15 view .LVU433
	cmpl	$1, %eax
.LBB382:
.LBB376:
.LBB374:
	.loc 2 107 10 view .LVU434
	movl	$0, %eax
.LVL125:
	.loc 2 107 10 view .LVU435
.LBE374:
.LBE376:
.LBE382:
	.loc 1 271 15 view .LVU436
	je	.L63
.LBB383:
	.loc 1 283 17 is_stmt 1 view .LVU437
	.loc 1 284 17 view .LVU438
.LVL126:
.LBB384:
.LBI384:
	.loc 2 105 1 view .LVU439
.LBB385:
	.loc 2 107 3 view .LVU440
	.loc 2 107 10 is_stmt 0 view .LVU441
	call	__printf_chk@PLT
.LVL127:
	.loc 2 107 10 view .LVU442
.LBE385:
.LBE384:
	.loc 1 285 17 is_stmt 1 view .LVU443
	leaq	12(%rsp), %rsi
	leaq	.LC25(%rip), %rdi
	xorl	%eax, %eax
	call	__isoc99_scanf@PLT
.LVL128:
	.loc 1 286 17 view .LVU444
.LBB386:
.LBI386:
	.loc 2 105 1 view .LVU445
.LBB387:
	.loc 2 107 3 view .LVU446
	.loc 2 107 10 is_stmt 0 view .LVU447
	leaq	.LC53(%rip), %rsi
	movl	$1, %edi
	xorl	%eax, %eax
	call	__printf_chk@PLT
.LVL129:
	.loc 2 107 10 view .LVU448
.LBE387:
.LBE386:
	.loc 1 287 17 is_stmt 1 view .LVU449
	leaq	16(%rsp), %rsi
	leaq	.LC25(%rip), %rdi
	xorl	%eax, %eax
	call	__isoc99_scanf@PLT
.LVL130:
	.loc 1 288 17 view .LVU450
.LBB388:
.LBI388:
	.loc 2 105 1 view .LVU451
.LBB389:
	.loc 2 107 3 view .LVU452
	.loc 2 107 10 is_stmt 0 view .LVU453
	leaq	.LC54(%rip), %rsi
	movl	$1, %edi
	xorl	%eax, %eax
	call	__printf_chk@PLT
.LVL131:
	.loc 2 107 10 view .LVU454
.LBE389:
.LBE388:
	.loc 1 289 17 is_stmt 1 view .LVU455
	leaq	20(%rsp), %rsi
	leaq	.LC25(%rip), %rdi
	xorl	%eax, %eax
	call	__isoc99_scanf@PLT
.LVL132:
	.loc 1 290 17 view .LVU456
	.loc 1 290 24 is_stmt 0 view .LVU457
	movss	20(%rsp), %xmm2
	movss	16(%rsp), %xmm1
	movss	12(%rsp), %xmm0
	call	calcular_volumen_cuboide@PLT
.LVL133:
	cvttss2sil	%xmm0, %eax
	.loc 1 291 17 is_stmt 1 view .LVU458
	jmp	.L18
	.p2align 4,,10
	.p2align 3
.L23:
	.loc 1 291 17 is_stmt 0 view .LVU459
.LBE383:
	.loc 1 297 13 is_stmt 1 view .LVU460
	.loc 1 297 25 is_stmt 0 view .LVU461
	xorl	%eax, %eax
	call	mostrar_elegir_SV
.LVL134:
	.loc 1 298 13 is_stmt 1 view .LVU462
.LBB390:
.LBB391:
.LBB392:
	.loc 2 107 10 is_stmt 0 view .LVU463
	leaq	.LC55(%rip), %rsi
	movl	$1, %edi
.LBE392:
.LBE391:
.LBE390:
	.loc 1 298 15 view .LVU464
	cmpl	$1, %eax
.LBB399:
.LBB395:
.LBB393:
	.loc 2 107 10 view .LVU465
	movl	$0, %eax
.LVL135:
	.loc 2 107 10 view .LVU466
.LBE393:
.LBE395:
.LBE399:
	.loc 1 298 15 view .LVU467
	je	.L64
.LBB400:
	.loc 1 308 17 is_stmt 1 view .LVU468
	.loc 1 309 17 view .LVU469
.LVL136:
.LBB401:
.LBI401:
	.loc 2 105 1 view .LVU470
.LBB402:
	.loc 2 107 3 view .LVU471
	.loc 2 107 10 is_stmt 0 view .LVU472
	call	__printf_chk@PLT
.LVL137:
	.loc 2 107 10 view .LVU473
.LBE402:
.LBE401:
	.loc 1 310 17 is_stmt 1 view .LVU474
	leaq	16(%rsp), %rsi
	leaq	.LC25(%rip), %rdi
	xorl	%eax, %eax
	call	__isoc99_scanf@PLT
.LVL138:
	.loc 1 311 17 view .LVU475
.LBB403:
.LBI403:
	.loc 2 105 1 view .LVU476
.LBB404:
	.loc 2 107 3 view .LVU477
	.loc 2 107 10 is_stmt 0 view .LVU478
	leaq	.LC56(%rip), %rsi
	movl	$1, %edi
	xorl	%eax, %eax
	call	__printf_chk@PLT
.LVL139:
	.loc 2 107 10 view .LVU479
.LBE404:
.LBE403:
	.loc 1 312 17 is_stmt 1 view .LVU480
	leaq	20(%rsp), %rsi
	leaq	.LC25(%rip), %rdi
	xorl	%eax, %eax
	call	__isoc99_scanf@PLT
.LVL140:
	.loc 1 313 17 view .LVU481
	.loc 1 313 24 is_stmt 0 view .LVU482
	movss	20(%rsp), %xmm1
	movss	16(%rsp), %xmm0
	call	calcular_volumen_cilindro_recto@PLT
.LVL141:
	cvttss2sil	%xmm0, %eax
	.loc 1 314 17 is_stmt 1 view .LVU483
	jmp	.L18
.LVL142:
.L19:
	.loc 1 314 17 is_stmt 0 view .LVU484
.LBE400:
	.loc 1 367 13 is_stmt 1 view .LVU485
.LBB405:
.LBI405:
	.loc 2 105 1 view .LVU486
.LBB406:
	.loc 2 107 3 view .LVU487
	.loc 2 107 10 is_stmt 0 view .LVU488
	leaq	.LC62(%rip), %rdi
.LVL143:
	.loc 2 107 10 view .LVU489
	call	puts@PLT
.LVL144:
.LBE406:
.LBE405:
	.loc 1 371 12 view .LVU490
	xorl	%eax, %eax
.LVL145:
.LBB408:
.LBB407:
	.loc 2 107 10 view .LVU491
	jmp	.L18
.LVL146:
	.p2align 4,,10
	.p2align 3
.L52:
	.loc 2 107 10 view .LVU492
.LBE407:
.LBE408:
.LBB409:
	.loc 1 342 17 is_stmt 1 view .LVU493
	.loc 1 343 17 view .LVU494
.LBB271:
.LBI266:
	.loc 2 105 1 view .LVU495
.LBB269:
	.loc 2 107 3 view .LVU496
	.loc 2 107 10 is_stmt 0 view .LVU497
	call	__printf_chk@PLT
.LVL147:
	.loc 2 107 10 view .LVU498
.LBE269:
.LBE271:
	.loc 1 344 17 is_stmt 1 view .LVU499
	leaq	16(%rsp), %rsi
	leaq	.LC25(%rip), %rdi
	xorl	%eax, %eax
	call	__isoc99_scanf@PLT
.LVL148:
	.loc 1 345 17 view .LVU500
.LBB272:
.LBI272:
	.loc 2 105 1 view .LVU501
.LBB273:
	.loc 2 107 3 view .LVU502
	.loc 2 107 10 is_stmt 0 view .LVU503
	leaq	.LC59(%rip), %rsi
	movl	$1, %edi
	xorl	%eax, %eax
	call	__printf_chk@PLT
.LVL149:
	.loc 2 107 10 view .LVU504
.LBE273:
.LBE272:
	.loc 1 346 17 is_stmt 1 view .LVU505
	leaq	20(%rsp), %rsi
	leaq	.LC25(%rip), %rdi
	xorl	%eax, %eax
	call	__isoc99_scanf@PLT
.LVL150:
	.loc 1 347 17 view .LVU506
	.loc 1 347 24 is_stmt 0 view .LVU507
	movss	20(%rsp), %xmm1
	movss	16(%rsp), %xmm0
	call	calcular_superficie_cono_circular_recto@PLT
.LVL151:
	cvttss2sil	%xmm0, %eax
	.loc 1 348 17 is_stmt 1 view .LVU508
	jmp	.L18
	.p2align 4,,10
	.p2align 3
.L51:
	.loc 1 348 17 is_stmt 0 view .LVU509
.LBE409:
.LBB410:
	.loc 1 323 17 is_stmt 1 view .LVU510
	.loc 1 324 17 view .LVU511
.LVL152:
.LBB260:
.LBI255:
	.loc 2 105 1 view .LVU512
.LBB258:
	.loc 2 107 3 view .LVU513
	.loc 2 107 10 is_stmt 0 view .LVU514
	call	__printf_chk@PLT
.LVL153:
	.loc 2 107 10 view .LVU515
.LBE258:
.LBE260:
	.loc 1 325 17 is_stmt 1 view .LVU516
	leaq	20(%rsp), %rsi
	leaq	.LC25(%rip), %rdi
	xorl	%eax, %eax
	call	__isoc99_scanf@PLT
.LVL154:
	.loc 1 326 17 view .LVU517
	.loc 1 326 24 is_stmt 0 view .LVU518
	movss	20(%rsp), %xmm0
	call	calcular_superficie_esfera@PLT
.LVL155:
	cvttss2sil	%xmm0, %eax
	.loc 1 327 17 is_stmt 1 view .LVU519
	jmp	.L18
	.p2align 4,,10
	.p2align 3
.L56:
	.loc 1 327 17 is_stmt 0 view .LVU520
.LBE410:
.LBB411:
	.loc 1 118 17 is_stmt 1 view .LVU521
	.loc 1 119 17 view .LVU522
.LVL156:
.LBB300:
.LBI295:
	.loc 2 105 1 view .LVU523
.LBB298:
	.loc 2 107 3 view .LVU524
	.loc 2 107 10 is_stmt 0 view .LVU525
	call	__printf_chk@PLT
.LVL157:
	.loc 2 107 10 view .LVU526
.LBE298:
.LBE300:
	.loc 1 120 17 is_stmt 1 view .LVU527
	leaq	20(%rsp), %rsi
	leaq	.LC25(%rip), %rdi
	xorl	%eax, %eax
	call	__isoc99_scanf@PLT
.LVL158:
	.loc 1 121 17 view .LVU528
	.loc 1 121 24 is_stmt 0 view .LVU529
	movss	20(%rsp), %xmm0
	call	calcular_area_cuadrado@PLT
.LVL159:
	cvttss2sil	%xmm0, %eax
	.loc 1 122 17 is_stmt 1 view .LVU530
	jmp	.L18
.LVL160:
	.p2align 4,,10
	.p2align 3
.L55:
	.loc 1 122 17 is_stmt 0 view .LVU531
.LBE411:
.LBB412:
	.loc 1 95 17 is_stmt 1 view .LVU532
	.loc 1 96 17 view .LVU533
.LBB413:
.LBI413:
	.loc 2 105 1 view .LVU534
.LBB414:
	.loc 2 107 3 view .LVU535
	.loc 2 107 10 is_stmt 0 view .LVU536
	leaq	.LC30(%rip), %rsi
	movl	$1, %edi
	xorl	%eax, %eax
.LVL161:
	.loc 2 107 10 view .LVU537
	call	__printf_chk@PLT
.LVL162:
	.loc 2 107 10 view .LVU538
.LBE414:
.LBE413:
	.loc 1 97 17 is_stmt 1 view .LVU539
	leaq	16(%rsp), %rsi
	leaq	.LC25(%rip), %rdi
	xorl	%eax, %eax
	call	__isoc99_scanf@PLT
.LVL163:
	.loc 1 98 17 view .LVU540
.LBB415:
.LBI415:
	.loc 2 105 1 view .LVU541
.LBB416:
	.loc 2 107 3 view .LVU542
	.loc 2 107 10 is_stmt 0 view .LVU543
	leaq	.LC31(%rip), %rsi
	movl	$1, %edi
	xorl	%eax, %eax
	call	__printf_chk@PLT
.LVL164:
	.loc 2 107 10 view .LVU544
.LBE416:
.LBE415:
	.loc 1 99 17 is_stmt 1 view .LVU545
	leaq	20(%rsp), %rsi
	leaq	.LC25(%rip), %rdi
	xorl	%eax, %eax
	call	__isoc99_scanf@PLT
.LVL165:
	.loc 1 100 17 view .LVU546
	.loc 1 100 24 is_stmt 0 view .LVU547
	movss	20(%rsp), %xmm1
	movss	16(%rsp), %xmm0
	call	calcular_area_paralelogramo@PLT
.LVL166:
	cvttss2sil	%xmm0, %eax
	.loc 1 101 17 is_stmt 1 view .LVU548
	jmp	.L18
.LVL167:
	.p2align 4,,10
	.p2align 3
.L54:
	.loc 1 101 17 is_stmt 0 view .LVU549
.LBE412:
.LBB417:
	.loc 1 70 17 is_stmt 1 view .LVU550
	.loc 1 71 17 view .LVU551
.LBB418:
.LBI418:
	.loc 2 105 1 view .LVU552
.LBB419:
	.loc 2 107 3 view .LVU553
	.loc 2 107 10 is_stmt 0 view .LVU554
	leaq	.LC24(%rip), %rsi
	movl	$1, %edi
	xorl	%eax, %eax
.LVL168:
	.loc 2 107 10 view .LVU555
	call	__printf_chk@PLT
.LVL169:
	.loc 2 107 10 view .LVU556
.LBE419:
.LBE418:
	.loc 1 72 17 is_stmt 1 view .LVU557
	leaq	16(%rsp), %rsi
	leaq	.LC25(%rip), %rdi
	xorl	%eax, %eax
	call	__isoc99_scanf@PLT
.LVL170:
	.loc 1 73 17 view .LVU558
.LBB420:
.LBI420:
	.loc 2 105 1 view .LVU559
.LBB421:
	.loc 2 107 3 view .LVU560
	.loc 2 107 10 is_stmt 0 view .LVU561
	leaq	.LC26(%rip), %rsi
	movl	$1, %edi
	xorl	%eax, %eax
	call	__printf_chk@PLT
.LVL171:
	.loc 2 107 10 view .LVU562
.LBE421:
.LBE420:
	.loc 1 74 17 is_stmt 1 view .LVU563
	leaq	20(%rsp), %rsi
	leaq	.LC25(%rip), %rdi
	xorl	%eax, %eax
	call	__isoc99_scanf@PLT
.LVL172:
	.loc 1 75 17 view .LVU564
	.loc 1 75 24 is_stmt 0 view .LVU565
	movss	20(%rsp), %xmm1
	movss	16(%rsp), %xmm0
	call	calcular_area_triangulo@PLT
.LVL173:
	cvttss2sil	%xmm0, %eax
	.loc 1 76 17 is_stmt 1 view .LVU566
	jmp	.L18
	.p2align 4,,10
	.p2align 3
.L60:
	.loc 1 76 17 is_stmt 0 view .LVU567
.LBE417:
.LBB422:
	.loc 1 210 17 is_stmt 1 view .LVU568
	.loc 1 211 17 view .LVU569
.LVL174:
.LBB338:
.LBI333:
	.loc 2 105 1 view .LVU570
.LBB336:
	.loc 2 107 3 view .LVU571
	.loc 2 107 10 is_stmt 0 view .LVU572
	call	__printf_chk@PLT
.LVL175:
	.loc 2 107 10 view .LVU573
.LBE336:
.LBE338:
	.loc 1 212 17 is_stmt 1 view .LVU574
	leaq	20(%rsp), %rsi
	leaq	.LC25(%rip), %rdi
	xorl	%eax, %eax
	call	__isoc99_scanf@PLT
.LVL176:
	.loc 1 213 17 view .LVU575
	.loc 1 213 24 is_stmt 0 view .LVU576
	movss	20(%rsp), %xmm0
	call	calcular_area_circulo@PLT
.LVL177:
	cvttss2sil	%xmm0, %eax
	.loc 1 214 17 is_stmt 1 view .LVU577
	jmp	.L18
.LVL178:
	.p2align 4,,10
	.p2align 3
.L59:
	.loc 1 214 17 is_stmt 0 view .LVU578
.LBE422:
.LBB423:
	.loc 1 181 17 is_stmt 1 view .LVU579
	.loc 1 182 17 view .LVU580
.LBB424:
.LBI424:
	.loc 2 105 1 view .LVU581
.LBB425:
	.loc 2 107 3 view .LVU582
	.loc 2 107 10 is_stmt 0 view .LVU583
	leaq	.LC40(%rip), %rsi
	movl	$1, %edi
	xorl	%eax, %eax
.LVL179:
	.loc 2 107 10 view .LVU584
	call	__printf_chk@PLT
.LVL180:
	.loc 2 107 10 view .LVU585
.LBE425:
.LBE424:
	.loc 1 183 17 is_stmt 1 view .LVU586
	leaq	12(%rsp), %rsi
	leaq	.LC25(%rip), %rdi
	xorl	%eax, %eax
	call	__isoc99_scanf@PLT
.LVL181:
	.loc 1 184 17 view .LVU587
.LBB426:
.LBI426:
	.loc 2 105 1 view .LVU588
.LBB427:
	.loc 2 107 3 view .LVU589
	.loc 2 107 10 is_stmt 0 view .LVU590
	leaq	.LC41(%rip), %rsi
	movl	$1, %edi
	xorl	%eax, %eax
	call	__printf_chk@PLT
.LVL182:
	.loc 2 107 10 view .LVU591
.LBE427:
.LBE426:
	.loc 1 185 17 is_stmt 1 view .LVU592
	leaq	16(%rsp), %rsi
	leaq	.LC25(%rip), %rdi
	xorl	%eax, %eax
	call	__isoc99_scanf@PLT
.LVL183:
	.loc 1 186 17 view .LVU593
.LBB428:
.LBI428:
	.loc 2 105 1 view .LVU594
.LBB429:
	.loc 2 107 3 view .LVU595
	.loc 2 107 10 is_stmt 0 view .LVU596
	leaq	.LC42(%rip), %rsi
	movl	$1, %edi
	xorl	%eax, %eax
	call	__printf_chk@PLT
.LVL184:
	.loc 2 107 10 view .LVU597
.LBE429:
.LBE428:
	.loc 1 187 17 is_stmt 1 view .LVU598
	leaq	20(%rsp), %rsi
	leaq	.LC25(%rip), %rdi
	xorl	%eax, %eax
	call	__isoc99_scanf@PLT
.LVL185:
	.loc 1 188 17 view .LVU599
	.loc 1 188 24 is_stmt 0 view .LVU600
	movss	20(%rsp), %xmm2
	movss	16(%rsp), %xmm1
	movss	12(%rsp), %xmm0
	call	calcular_area_trapecio@PLT
.LVL186:
	cvttss2sil	%xmm0, %eax
	.loc 1 189 17 is_stmt 1 view .LVU601
	jmp	.L18
.LVL187:
	.p2align 4,,10
	.p2align 3
.L58:
	.loc 1 189 17 is_stmt 0 view .LVU602
.LBE423:
.LBB430:
	.loc 1 160 17 is_stmt 1 view .LVU603
	.loc 1 161 17 view .LVU604
.LBB431:
.LBI431:
	.loc 2 105 1 view .LVU605
.LBB432:
	.loc 2 107 3 view .LVU606
	.loc 2 107 10 is_stmt 0 view .LVU607
	leaq	.LC37(%rip), %rsi
	movl	$1, %edi
	xorl	%eax, %eax
.LVL188:
	.loc 2 107 10 view .LVU608
	call	__printf_chk@PLT
.LVL189:
	.loc 2 107 10 view .LVU609
.LBE432:
.LBE431:
	.loc 1 162 17 is_stmt 1 view .LVU610
	leaq	16(%rsp), %rsi
	leaq	.LC25(%rip), %rdi
	xorl	%eax, %eax
	call	__isoc99_scanf@PLT
.LVL190:
	.loc 1 163 17 view .LVU611
.LBB433:
.LBI433:
	.loc 2 105 1 view .LVU612
.LBB434:
	.loc 2 107 3 view .LVU613
	.loc 2 107 10 is_stmt 0 view .LVU614
	leaq	.LC38(%rip), %rsi
	movl	$1, %edi
	xorl	%eax, %eax
	call	__printf_chk@PLT
.LVL191:
	.loc 2 107 10 view .LVU615
.LBE434:
.LBE433:
	.loc 1 164 17 is_stmt 1 view .LVU616
	leaq	20(%rsp), %rsi
	leaq	.LC25(%rip), %rdi
	xorl	%eax, %eax
	call	__isoc99_scanf@PLT
.LVL192:
	.loc 1 165 17 view .LVU617
	.loc 1 165 24 is_stmt 0 view .LVU618
	movss	20(%rsp), %xmm1
	movss	16(%rsp), %xmm0
	call	calcular_area_rombo@PLT
.LVL193:
	cvttss2sil	%xmm0, %eax
	.loc 1 166 17 is_stmt 1 view .LVU619
	jmp	.L18
	.p2align 4,,10
	.p2align 3
.L57:
	.loc 1 166 17 is_stmt 0 view .LVU620
.LBE430:
.LBB435:
	.loc 1 137 17 is_stmt 1 view .LVU621
	.loc 1 138 17 view .LVU622
.LVL194:
.LBB311:
.LBI306:
	.loc 2 105 1 view .LVU623
.LBB309:
	.loc 2 107 3 view .LVU624
	.loc 2 107 10 is_stmt 0 view .LVU625
	call	__printf_chk@PLT
.LVL195:
	.loc 2 107 10 view .LVU626
.LBE309:
.LBE311:
	.loc 1 139 17 is_stmt 1 view .LVU627
	leaq	16(%rsp), %rsi
	leaq	.LC25(%rip), %rdi
	xorl	%eax, %eax
	call	__isoc99_scanf@PLT
.LVL196:
	.loc 1 140 17 view .LVU628
.LBB312:
.LBI312:
	.loc 2 105 1 view .LVU629
.LBB313:
	.loc 2 107 3 view .LVU630
	.loc 2 107 10 is_stmt 0 view .LVU631
	leaq	.LC36(%rip), %rsi
	movl	$1, %edi
	xorl	%eax, %eax
	call	__printf_chk@PLT
.LVL197:
	.loc 2 107 10 view .LVU632
.LBE313:
.LBE312:
	.loc 1 141 17 is_stmt 1 view .LVU633
	leaq	20(%rsp), %rsi
	leaq	.LC25(%rip), %rdi
	xorl	%eax, %eax
	call	__isoc99_scanf@PLT
.LVL198:
	.loc 1 142 17 view .LVU634
	.loc 1 142 24 is_stmt 0 view .LVU635
	movss	20(%rsp), %xmm1
	movss	16(%rsp), %xmm0
	call	calcular_area_rectangulo@PLT
.LVL199:
	cvttss2sil	%xmm0, %eax
	.loc 1 143 17 is_stmt 1 view .LVU636
	jmp	.L18
	.p2align 4,,10
	.p2align 3
.L64:
	.loc 1 143 17 is_stmt 0 view .LVU637
.LBE435:
.LBB436:
	.loc 1 300 17 is_stmt 1 view .LVU638
	.loc 1 301 17 view .LVU639
.LVL200:
.LBB396:
.LBI391:
	.loc 2 105 1 view .LVU640
.LBB394:
	.loc 2 107 3 view .LVU641
	.loc 2 107 10 is_stmt 0 view .LVU642
	call	__printf_chk@PLT
.LVL201:
	.loc 2 107 10 view .LVU643
.LBE394:
.LBE396:
	.loc 1 302 17 is_stmt 1 view .LVU644
	leaq	16(%rsp), %rsi
	leaq	.LC25(%rip), %rdi
	xorl	%eax, %eax
	call	__isoc99_scanf@PLT
.LVL202:
	.loc 1 303 17 view .LVU645
.LBB397:
.LBI397:
	.loc 2 105 1 view .LVU646
.LBB398:
	.loc 2 107 3 view .LVU647
	.loc 2 107 10 is_stmt 0 view .LVU648
	leaq	.LC56(%rip), %rsi
	movl	$1, %edi
	xorl	%eax, %eax
	call	__printf_chk@PLT
.LVL203:
	.loc 2 107 10 view .LVU649
.LBE398:
.LBE397:
	.loc 1 304 17 is_stmt 1 view .LVU650
	leaq	20(%rsp), %rsi
	leaq	.LC25(%rip), %rdi
	xorl	%eax, %eax
	call	__isoc99_scanf@PLT
.LVL204:
	.loc 1 305 17 view .LVU651
	.loc 1 305 24 is_stmt 0 view .LVU652
	movss	20(%rsp), %xmm1
	movss	16(%rsp), %xmm0
	call	calcular_superficie_cilindro_recto@PLT
.LVL205:
	cvttss2sil	%xmm0, %eax
	.loc 1 306 17 is_stmt 1 view .LVU653
	jmp	.L18
	.p2align 4,,10
	.p2align 3
.L63:
	.loc 1 306 17 is_stmt 0 view .LVU654
.LBE436:
.LBB437:
	.loc 1 273 17 is_stmt 1 view .LVU655
	.loc 1 274 17 view .LVU656
.LVL206:
.LBB377:
.LBI372:
	.loc 2 105 1 view .LVU657
.LBB375:
	.loc 2 107 3 view .LVU658
	.loc 2 107 10 is_stmt 0 view .LVU659
	call	__printf_chk@PLT
.LVL207:
	.loc 2 107 10 view .LVU660
.LBE375:
.LBE377:
	.loc 1 275 17 is_stmt 1 view .LVU661
	leaq	12(%rsp), %rsi
	leaq	.LC25(%rip), %rdi
	xorl	%eax, %eax
	call	__isoc99_scanf@PLT
.LVL208:
	.loc 1 276 17 view .LVU662
.LBB378:
.LBI378:
	.loc 2 105 1 view .LVU663
.LBB379:
	.loc 2 107 3 view .LVU664
	.loc 2 107 10 is_stmt 0 view .LVU665
	leaq	.LC53(%rip), %rsi
	movl	$1, %edi
	xorl	%eax, %eax
	call	__printf_chk@PLT
.LVL209:
	.loc 2 107 10 view .LVU666
.LBE379:
.LBE378:
	.loc 1 277 17 is_stmt 1 view .LVU667
	leaq	16(%rsp), %rsi
	leaq	.LC25(%rip), %rdi
	xorl	%eax, %eax
	call	__isoc99_scanf@PLT
.LVL210:
	.loc 1 278 17 view .LVU668
.LBB380:
.LBI380:
	.loc 2 105 1 view .LVU669
.LBB381:
	.loc 2 107 3 view .LVU670
	.loc 2 107 10 is_stmt 0 view .LVU671
	leaq	.LC54(%rip), %rsi
	movl	$1, %edi
	xorl	%eax, %eax
	call	__printf_chk@PLT
.LVL211:
	.loc 2 107 10 view .LVU672
.LBE381:
.LBE380:
	.loc 1 279 17 is_stmt 1 view .LVU673
	leaq	20(%rsp), %rsi
	leaq	.LC25(%rip), %rdi
	xorl	%eax, %eax
	call	__isoc99_scanf@PLT
.LVL212:
	.loc 1 280 17 view .LVU674
	.loc 1 280 24 is_stmt 0 view .LVU675
	movss	20(%rsp), %xmm2
	movss	16(%rsp), %xmm1
	movss	12(%rsp), %xmm0
	call	calcular_superficie_cuboide@PLT
.LVL213:
	cvttss2sil	%xmm0, %eax
	.loc 1 281 17 is_stmt 1 view .LVU676
	jmp	.L18
	.p2align 4,,10
	.p2align 3
.L62:
	.loc 1 281 17 is_stmt 0 view .LVU677
.LBE437:
.LBB438:
	.loc 1 254 17 is_stmt 1 view .LVU678
	.loc 1 255 17 view .LVU679
.LVL214:
.LBB366:
.LBI361:
	.loc 2 105 1 view .LVU680
.LBB364:
	.loc 2 107 3 view .LVU681
	.loc 2 107 10 is_stmt 0 view .LVU682
	call	__printf_chk@PLT
.LVL215:
	.loc 2 107 10 view .LVU683
.LBE364:
.LBE366:
	.loc 1 256 17 is_stmt 1 view .LVU684
	leaq	20(%rsp), %rsi
	leaq	.LC25(%rip), %rdi
	xorl	%eax, %eax
	call	__isoc99_scanf@PLT
.LVL216:
	.loc 1 257 17 view .LVU685
	.loc 1 257 24 is_stmt 0 view .LVU686
	movss	20(%rsp), %xmm0
	call	calcular_superficie_cubo@PLT
.LVL217:
	cvttss2sil	%xmm0, %eax
	.loc 1 258 17 is_stmt 1 view .LVU687
	jmp	.L18
	.p2align 4,,10
	.p2align 3
.L61:
	.loc 1 258 17 is_stmt 0 view .LVU688
.LBE438:
.LBB439:
	.loc 1 229 17 is_stmt 1 view .LVU689
	.loc 1 229 38 view .LVU690
	.loc 1 230 17 view .LVU691
.LVL218:
.LBB349:
.LBI344:
	.loc 2 105 1 view .LVU692
.LBB347:
	.loc 2 107 3 view .LVU693
	.loc 2 107 10 is_stmt 0 view .LVU694
	call	__printf_chk@PLT
.LVL219:
	.loc 2 107 10 view .LVU695
.LBE347:
.LBE349:
	.loc 1 231 17 is_stmt 1 view .LVU696
	leaq	20(%rsp), %rsi
	leaq	.LC19(%rip), %rdi
	xorl	%eax, %eax
	call	__isoc99_scanf@PLT
.LVL220:
	.loc 1 232 17 view .LVU697
.LBB350:
.LBI350:
	.loc 2 105 1 view .LVU698
.LBB351:
	.loc 2 107 3 view .LVU699
	.loc 2 107 10 is_stmt 0 view .LVU700
	leaq	.LC49(%rip), %rsi
	movl	$1, %edi
	xorl	%eax, %eax
	call	__printf_chk@PLT
.LVL221:
	.loc 2 107 10 view .LVU701
.LBE351:
.LBE350:
	.loc 1 233 17 is_stmt 1 view .LVU702
	leaq	12(%rsp), %rsi
	leaq	.LC25(%rip), %rdi
	xorl	%eax, %eax
	call	__isoc99_scanf@PLT
.LVL222:
	.loc 1 234 17 view .LVU703
.LBB352:
.LBI352:
	.loc 2 105 1 view .LVU704
.LBB353:
	.loc 2 107 3 view .LVU705
	.loc 2 107 10 is_stmt 0 view .LVU706
	leaq	.LC50(%rip), %rsi
	movl	$1, %edi
	xorl	%eax, %eax
	call	__printf_chk@PLT
.LVL223:
	.loc 2 107 10 view .LVU707
.LBE353:
.LBE352:
	.loc 1 235 17 is_stmt 1 view .LVU708
	leaq	16(%rsp), %rsi
	leaq	.LC25(%rip), %rdi
	xorl	%eax, %eax
	call	__isoc99_scanf@PLT
.LVL224:
	.loc 1 236 17 view .LVU709
	.loc 1 236 24 is_stmt 0 view .LVU710
	movss	16(%rsp), %xmm1
	movss	12(%rsp), %xmm0
	movl	20(%rsp), %edi
	call	calcular_area_poligono_regular@PLT
.LVL225:
	cvttss2sil	%xmm0, %eax
	.loc 1 237 17 is_stmt 1 view .LVU711
	jmp	.L18
.LVL226:
.L53:
	.loc 1 237 17 is_stmt 0 view .LVU712
.LBE439:
	.loc 1 372 1 view .LVU713
	call	__stack_chk_fail@PLT
.LVL227:
	.cfi_endproc
.LFE27:
	.size	solicitar_presentar_datos, .-solicitar_presentar_datos
	.section	.rodata.str1.8
	.align 8
.LC63:
	.string	"\302\277Desea realizar otro c\303\241lculo? (s/n): "
	.section	.rodata.str1.1
.LC64:
	.string	" %c"
	.text
	.p2align 4
	.globl	continuar
	.type	continuar, @function
continuar:
.LFB28:
	.loc 1 374 17 is_stmt 1 view -0
	.cfi_startproc
	endbr64
	subq	$24, %rsp
	.cfi_def_cfa_offset 32
.LBB440:
.LBB441:
	.loc 2 107 10 is_stmt 0 view .LVU715
	leaq	.LC63(%rip), %rsi
	movl	$1, %edi
.LBE441:
.LBE440:
	.loc 1 374 17 view .LVU716
	movq	%fs:40, %rax
	movq	%rax, 8(%rsp)
	xorl	%eax, %eax
	.loc 1 375 5 is_stmt 1 view .LVU717
	.loc 1 376 5 view .LVU718
.LVL228:
.LBB443:
.LBI440:
	.loc 2 105 1 view .LVU719
.LBB442:
	.loc 2 107 3 view .LVU720
	.loc 2 107 10 is_stmt 0 view .LVU721
	call	__printf_chk@PLT
.LVL229:
	.loc 2 107 10 view .LVU722
.LBE442:
.LBE443:
	.loc 1 377 5 is_stmt 1 view .LVU723
	xorl	%eax, %eax
	leaq	7(%rsp), %rsi
	leaq	.LC64(%rip), %rdi
	call	__isoc99_scanf@PLT
.LVL230:
	.loc 1 378 5 view .LVU724
	.loc 1 378 26 is_stmt 0 view .LVU725
	movzbl	7(%rsp), %eax
	andl	$-33, %eax
	.loc 1 378 8 view .LVU726
	cmpb	$83, %al
	sete	%al
	.loc 1 382 1 view .LVU727
	movq	8(%rsp), %rdx
	xorq	%fs:40, %rdx
	jne	.L68
	movzbl	%al, %eax
	addq	$24, %rsp
	.cfi_remember_state
	.cfi_def_cfa_offset 8
	ret
.L68:
	.cfi_restore_state
	call	__stack_chk_fail@PLT
.LVL231:
	.cfi_endproc
.LFE28:
	.size	continuar, .-continuar
.Letext0:
	.file 3 "/usr/lib/gcc/x86_64-linux-gnu/9/include/stddef.h"
	.file 4 "/usr/include/x86_64-linux-gnu/bits/types.h"
	.file 5 "/usr/include/x86_64-linux-gnu/bits/types/struct_FILE.h"
	.file 6 "/usr/include/x86_64-linux-gnu/bits/types/FILE.h"
	.file 7 "/usr/include/stdio.h"
	.file 8 "/usr/include/x86_64-linux-gnu/bits/sys_errlist.h"
	.file 9 "libreria.h"
	.file 10 "<built-in>"
	.section	.note.GNU-stack,"",@progbits
	.section	.note.gnu.property,"a"
	.align 8
	.long	 1f - 0f
	.long	 4f - 1f
	.long	 5
0:
	.string	 "GNU"
1:
	.align 8
	.long	 0xc0000002
	.long	 3f - 2f
2:
	.long	 0x3
3:
	.align 8
4:
